target datalayout = "e-m:e-p270:32:32-p271:32:32-p272:64:64-i64:64-i128:128-f80:128-n8:16:32:64-S128"
target triple = "x86_64-pc-linux-gnu"

%struct.ident_t = type { i32, i32, i32, i32, ptr }
%"class.ncnn::GroupNorm" = type { %"class.ncnn::Layer", i32, i32, float, i32, %"class.ncnn::Mat", %"class.ncnn::Mat" }
%"class.ncnn::Layer" = type { ptr, i8, i8, i8, i8, i8, i8, i8, i8, i8, i8, i8, i8, i8, i8, i8, i8, i8, i8, i8, i8, i32, ptr, i32, %"class.std::__cxx11::basic_string", %"class.std::__cxx11::basic_string", %"class.std::vector", %"class.std::vector", %"class.std::vector.3", %"class.std::vector.3" }
%"class.std::__cxx11::basic_string" = type { %"struct.std::__cxx11::basic_string<char>::_Alloc_hider", i64, %union.anon }
%"struct.std::__cxx11::basic_string<char>::_Alloc_hider" = type { ptr }
%union.anon = type { i64, [8 x i8] }
%"class.std::vector" = type { %"struct.std::_Vector_base" }
%"struct.std::_Vector_base" = type { %"struct.std::_Vector_base<int, std::allocator<int>>::_Vector_impl" }
%"struct.std::_Vector_base<int, std::allocator<int>>::_Vector_impl" = type { %"struct.std::_Vector_base<int, std::allocator<int>>::_Vector_impl_data" }
%"struct.std::_Vector_base<int, std::allocator<int>>::_Vector_impl_data" = type { ptr, ptr, ptr }
%"class.std::vector.3" = type { %"struct.std::_Vector_base.4" }
%"struct.std::_Vector_base.4" = type { %"struct.std::_Vector_base<ncnn::Mat, std::allocator<ncnn::Mat>>::_Vector_impl" }
%"struct.std::_Vector_base<ncnn::Mat, std::allocator<ncnn::Mat>>::_Vector_impl" = type { %"struct.std::_Vector_base<ncnn::Mat, std::allocator<ncnn::Mat>>::_Vector_impl_data" }
%"struct.std::_Vector_base<ncnn::Mat, std::allocator<ncnn::Mat>>::_Vector_impl_data" = type { ptr, ptr, ptr }
%"class.ncnn::Mat" = type { ptr, ptr, i64, i32, ptr, i32, i32, i32, i32, i32, i64 }
%"class.ncnn::Option" = type { i8, i32, ptr, ptr, i32, i8, i8, i8, i8, i8, i8, i8, i8, i8, i8, i8, i8, i8, i8, i8, i8, i8, i8, i8, i8, i32, i8, i8, i8, i8, i8, i8, i8, i8, i8, i8, i8, i8 }

@2 = private unnamed_addr constant %struct.ident_t { i32 0, i32 2, i32 0, i32 22, ptr @0 }, align 8

; Function Attrs: mustprogress nounwind uwtable
define hidden noundef i32 @_ZNK4ncnn17GroupNorm_x86_avx15forward_inplaceERNS_3MatERKNS_6OptionE(ptr noundef nonnull align 8 dereferenceable(368) %0, ptr noundef nonnull align 8 dereferenceable(72) %1, ptr noundef nonnull align 8 dereferenceable(64) %2) unnamed_addr #2 align 2 {
  %4 = alloca i32, align 4
  %5 = alloca ptr, align 8
  %6 = alloca ptr, align 8
  %7 = alloca ptr, align 8
  %8 = alloca i32, align 4
  %9 = alloca i32, align 4
  %10 = alloca i32, align 4
  %11 = alloca i32, align 4
  %12 = alloca i32, align 4
  %13 = alloca i32, align 4
  %14 = alloca i32, align 4
  %15 = alloca i32, align 4
  %16 = alloca i32, align 4
  %17 = call i32 @__kmpc_global_thread_num(ptr @2)
  store ptr %0, ptr %5, align 8, !tbaa !11
  store ptr %1, ptr %6, align 8, !tbaa !13
  store ptr %2, ptr %7, align 8, !tbaa !15
  %18 = load ptr, ptr %5, align 8
  call void @llvm.lifetime.start.p0(i64 4, ptr %8) #6
  %19 = load ptr, ptr %6, align 8, !tbaa !13
  %20 = getelementptr inbounds nuw %"class.ncnn::Mat", ptr %19, i32 0, i32 5
  %21 = load i32, ptr %20, align 8, !tbaa !17
  store i32 %21, ptr %8, align 4, !tbaa !23
  call void @llvm.lifetime.start.p0(i64 4, ptr %9) #6
  %22 = getelementptr inbounds nuw %"class.ncnn::GroupNorm", ptr %18, i32 0, i32 2
  %23 = load i32, ptr %22, align 4, !tbaa !24
  %24 = getelementptr inbounds nuw %"class.ncnn::GroupNorm", ptr %18, i32 0, i32 1
  %25 = load i32, ptr %24, align 8, !tbaa !40
  %26 = sdiv i32 %23, %25
  store i32 %26, ptr %9, align 4, !tbaa !23
  %27 = load i32, ptr %8, align 4, !tbaa !23
  %28 = icmp eq i32 %27, 1
  br i1 %28, label %29, label %34

29:                                               ; preds = %3
  %30 = load ptr, ptr %7, align 8, !tbaa !15
  %31 = getelementptr inbounds nuw %"class.ncnn::Option", ptr %30, i32 0, i32 1
  %32 = load i32, ptr %31, align 4, !tbaa !41
  call void @__kmpc_push_num_threads(ptr @2, i32 %17, i32 %32)
  %33 = load ptr, ptr %6, align 8, !tbaa !13
  call void (ptr, i32, ptr, ...) @__kmpc_fork_call(ptr @2, i32 3, ptr @_ZNK4ncnn17GroupNorm_x86_avx15forward_inplaceERNS_3MatERKNS_6OptionE.omp_outlined, ptr %18, ptr %33, ptr %9)
  store i32 0, ptr %4, align 4
  store i32 1, ptr %10, align 4
  br label %74

34:                                               ; preds = %3
  %35 = load i32, ptr %8, align 4, !tbaa !23
  %36 = icmp eq i32 %35, 2
  br i1 %36, label %37, label %48

37:                                               ; preds = %34
  call void @llvm.lifetime.start.p0(i64 4, ptr %11) #6
  %38 = load ptr, ptr %6, align 8, !tbaa !13
  %39 = getelementptr inbounds nuw %"class.ncnn::Mat", ptr %38, i32 0, i32 6
  %40 = load i32, ptr %39, align 4, !tbaa !43
  store i32 %40, ptr %11, align 4, !tbaa !23
  call void @llvm.lifetime.start.p0(i64 4, ptr %12) #6
  %41 = load i32, ptr %9, align 4, !tbaa !23
  %42 = load i32, ptr %11, align 4, !tbaa !23
  %43 = mul nsw i32 %41, %42
  store i32 %43, ptr %12, align 4, !tbaa !23
  %44 = load ptr, ptr %7, align 8, !tbaa !15
  %45 = getelementptr inbounds nuw %"class.ncnn::Option", ptr %44, i32 0, i32 1
  %46 = load i32, ptr %45, align 4, !tbaa !41
  call void @__kmpc_push_num_threads(ptr @2, i32 %17, i32 %46)
  %47 = load ptr, ptr %6, align 8, !tbaa !13
  call void (ptr, i32, ptr, ...) @__kmpc_fork_call(ptr @2, i32 5, ptr @_ZNK4ncnn17GroupNorm_x86_avx15forward_inplaceERNS_3MatERKNS_6OptionE.omp_outlined.1, ptr %18, ptr %47, ptr %9, ptr %12, ptr %11)
  store i32 0, ptr %4, align 4
  store i32 1, ptr %10, align 4
  call void @llvm.lifetime.end.p0(i64 4, ptr %12) #6
  call void @llvm.lifetime.end.p0(i64 4, ptr %11) #6
  br label %74

48:                                               ; preds = %34
  %49 = load i32, ptr %8, align 4, !tbaa !23
  %50 = icmp eq i32 %49, 3
  br i1 %50, label %54, label %51

51:                                               ; preds = %48
  %52 = load i32, ptr %8, align 4, !tbaa !23
  %53 = icmp eq i32 %52, 4
  br i1 %53, label %54, label %73

54:                                               ; preds = %51, %48
  call void @llvm.lifetime.start.p0(i64 4, ptr %13) #6
  %55 = load ptr, ptr %6, align 8, !tbaa !13
  %56 = getelementptr inbounds nuw %"class.ncnn::Mat", ptr %55, i32 0, i32 6
  %57 = load i32, ptr %56, align 4, !tbaa !43
  store i32 %57, ptr %13, align 4, !tbaa !23
  call void @llvm.lifetime.start.p0(i64 4, ptr %14) #6
  %58 = load ptr, ptr %6, align 8, !tbaa !13
  %59 = getelementptr inbounds nuw %"class.ncnn::Mat", ptr %58, i32 0, i32 7
  %60 = load i32, ptr %59, align 8, !tbaa !44
  store i32 %60, ptr %14, align 4, !tbaa !23
  call void @llvm.lifetime.start.p0(i64 4, ptr %15) #6
  %61 = load ptr, ptr %6, align 8, !tbaa !13
  %62 = getelementptr inbounds nuw %"class.ncnn::Mat", ptr %61, i32 0, i32 8
  %63 = load i32, ptr %62, align 4, !tbaa !45
  store i32 %63, ptr %15, align 4, !tbaa !23
  call void @llvm.lifetime.start.p0(i64 4, ptr %16) #6
  %64 = load i32, ptr %13, align 4, !tbaa !23
  %65 = load i32, ptr %14, align 4, !tbaa !23
  %66 = mul nsw i32 %64, %65
  %67 = load i32, ptr %15, align 4, !tbaa !23
  %68 = mul nsw i32 %66, %67
  store i32 %68, ptr %16, align 4, !tbaa !23
  %69 = load ptr, ptr %7, align 8, !tbaa !15
  %70 = getelementptr inbounds nuw %"class.ncnn::Option", ptr %69, i32 0, i32 1
  %71 = load i32, ptr %70, align 4, !tbaa !41
  call void @__kmpc_push_num_threads(ptr @2, i32 %17, i32 %71)
  %72 = load ptr, ptr %6, align 8, !tbaa !13
  call void (ptr, i32, ptr, ...) @__kmpc_fork_call(ptr @2, i32 4, ptr @_ZNK4ncnn17GroupNorm_x86_avx15forward_inplaceERNS_3MatERKNS_6OptionE.omp_outlined.2, ptr %18, ptr %72, ptr %9, ptr %16)
  store i32 0, ptr %4, align 4
  store i32 1, ptr %10, align 4
  call void @llvm.lifetime.end.p0(i64 4, ptr %16) #6
  call void @llvm.lifetime.end.p0(i64 4, ptr %15) #6
  call void @llvm.lifetime.end.p0(i64 4, ptr %14) #6
  call void @llvm.lifetime.end.p0(i64 4, ptr %13) #6
  br label %74

73:                                               ; preds = %51
  store i32 0, ptr %4, align 4
  store i32 1, ptr %10, align 4
  br label %74

74:                                               ; preds = %73, %54, %37, %29
  call void @llvm.lifetime.end.p0(i64 4, ptr %9) #6
  call void @llvm.lifetime.end.p0(i64 4, ptr %8) #6
  %75 = load i32, ptr %4, align 4
  ret i32 %75
}