; Function Attrs: mustprogress nounwind uwtable
define hidden noundef i32 @_ZNK4ncnn17GroupNorm_x86_avx15forward_inplaceERNS_3MatERKNS_6OptionE(ptr noundef nonnull align 8 dereferenceable(368) %0, ptr noundef nonnull align 8 dereferenceable(72) %1, ptr noundef nonnull readonly align 8 captures(none) dereferenceable(64) %2) unnamed_addr #2 align 2 {
  %4 = alloca i32, align 4
  %5 = alloca i32, align 4
  %6 = alloca i32, align 4
  %7 = alloca i32, align 4
  %8 = tail call i32 @__kmpc_global_thread_num(ptr nonnull @2)
  %9 = getelementptr inbounds nuw i8, ptr %1, i64 40
  %10 = load i32, ptr %9, align 8, !tbaa !18
  call void @llvm.lifetime.start.p0(i64 4, ptr nonnull %4) #6
  %11 = getelementptr inbounds nuw i8, ptr %0, i64 212
  %12 = load i32, ptr %11, align 4, !tbaa !19
  %13 = getelementptr inbounds nuw i8, ptr %0, i64 208
  %14 = load i32, ptr %13, align 8, !tbaa !36
  %15 = sdiv i32 %12, %14
  store i32 %15, ptr %4, align 4, !tbaa !37
  switch i32 %10, label %25 [
    i32 1, label %16
    i32 2, label %19
  ]

16:                                               ; preds = %3
  %17 = getelementptr inbounds nuw i8, ptr %2, i64 4
  %18 = load i32, ptr %17, align 4, !tbaa !38
  tail call void @__kmpc_push_num_threads(ptr nonnull @2, i32 %8, i32 %18)
  call void (ptr, i32, ptr, ...) @__kmpc_fork_call(ptr nonnull @2, i32 3, ptr nonnull @_ZNK4ncnn17GroupNorm_x86_avx15forward_inplaceERNS_3MatERKNS_6OptionE.omp_outlined, ptr nonnull %0, ptr nonnull %1, ptr nonnull %4)
  br label %38

19:                                               ; preds = %3
  call void @llvm.lifetime.start.p0(i64 4, ptr nonnull %5) #6
  %20 = getelementptr inbounds nuw i8, ptr %1, i64 44
  %21 = load i32, ptr %20, align 4, !tbaa !40
  store i32 %21, ptr %5, align 4, !tbaa !37
  call void @llvm.lifetime.start.p0(i64 4, ptr nonnull %6) #6
  %22 = mul nsw i32 %21, %15
  store i32 %22, ptr %6, align 4, !tbaa !37
  %23 = getelementptr inbounds nuw i8, ptr %2, i64 4
  %24 = load i32, ptr %23, align 4, !tbaa !38
  tail call void @__kmpc_push_num_threads(ptr nonnull @2, i32 %8, i32 %24)
  call void (ptr, i32, ptr, ...) @__kmpc_fork_call(ptr nonnull @2, i32 5, ptr nonnull @_ZNK4ncnn17GroupNorm_x86_avx15forward_inplaceERNS_3MatERKNS_6OptionE.omp_outlined.1, ptr nonnull %0, ptr nonnull %1, ptr nonnull %4, ptr nonnull %6, ptr nonnull %5)
  call void @llvm.lifetime.end.p0(i64 4, ptr nonnull %6) #6
  call void @llvm.lifetime.end.p0(i64 4, ptr nonnull %5) #6
  br label %38

25:                                               ; preds = %3
  %26 = add i32 %10, -3
  %or.cond = icmp ult i32 %26, 2
  br i1 %or.cond, label %27, label %38

27:                                               ; preds = %25
  %28 = getelementptr inbounds nuw i8, ptr %1, i64 44
  %29 = load i32, ptr %28, align 4, !tbaa !40
  %30 = getelementptr inbounds nuw i8, ptr %1, i64 48
  %31 = load i32, ptr %30, align 8, !tbaa !41
  %32 = getelementptr inbounds nuw i8, ptr %1, i64 52
  %33 = load i32, ptr %32, align 4, !tbaa !42
  call void @llvm.lifetime.start.p0(i64 4, ptr nonnull %7) #6
  %34 = mul nsw i32 %31, %29
  %35 = mul nsw i32 %34, %33
  store i32 %35, ptr %7, align 4, !tbaa !37
  %36 = getelementptr inbounds nuw i8, ptr %2, i64 4
  %37 = load i32, ptr %36, align 4, !tbaa !38
  tail call void @__kmpc_push_num_threads(ptr nonnull @2, i32 %8, i32 %37)
  call void (ptr, i32, ptr, ...) @__kmpc_fork_call(ptr nonnull @2, i32 4, ptr nonnull @_ZNK4ncnn17GroupNorm_x86_avx15forward_inplaceERNS_3MatERKNS_6OptionE.omp_outlined.2, ptr nonnull %0, ptr nonnull %1, ptr nonnull %4, ptr nonnull %7)
  call void @llvm.lifetime.end.p0(i64 4, ptr nonnull %7) #6
  br label %38

38:                                               ; preds = %25, %27, %19, %16
  call void @llvm.lifetime.end.p0(i64 4, ptr nonnull %4) #6
  ret i32 0
}